(dp0
cnumpy.core.multiarray
scalar
p1
(cnumpy
dtype
p2
(S'f8'
p3
I0
I1
tp4
Rp5
(I3
S'<'
p6
NNNI-1
I-1
I0
tp7
bS'\x00\x00\x00\x00\x00\x00\x00\x00'
p8
tp9
Rp10
(dp11
S'rel_rot_stats'
p12
(dp13
S'std'
p14
I0
sS'min'
p15
I0
sS'max'
p16
I0
sS'rmse'
p17
I0
sS'median'
p18
I0
sS'num_samples'
p19
I0
sS'mean'
p20
I0
ssS'rel_yaw_stats'
p21
(dp22
g14
I0
sg15
I0
sg16
I0
sg17
I0
sg18
I0
sg19
I0
sg20
I0
ssS'rel_rot_deg_per_m_stats'
p23
(dp24
g14
I0
sg15
I0
sg16
I0
sg17
I0
sg18
I0
sg19
I0
sg20
I0
ssS'rel_rot'
p25
cnumpy.core.multiarray
_reconstruct
p26
(cnumpy
ndarray
p27
(I0
tp28
S'b'
p29
tp30
Rp31
(I1
(I0
tp32
g5
I00
S''
p33
tp34
bsS'rel_trans_stats'
p35
(dp36
g14
I0
sg15
I0
sg16
I0
sg17
I0
sg18
I0
sg19
I0
sg20
I0
ssS'rel_trans_perc_stats'
p37
(dp38
g14
I0
sg15
I0
sg16
I0
sg17
I0
sg18
I0
sg19
I0
sg20
I0
ssS'rel_rot_deg_per_m'
p39
g26
(g27
(I0
tp40
g29
tp41
Rp42
(I1
(I0
tp43
g5
I00
g33
tp44
bsS'rel_gravity'
p45
g26
(g27
(I0
tp46
g29
tp47
Rp48
(I1
(I0
tp49
g5
I00
g33
tp50
bsS'rel_trans_perc'
p51
g26
(g27
(I0
tp52
g29
tp53
Rp54
(I1
(I0
tp55
g5
I00
g33
tp56
bsS'rel_yaw'
p57
g26
(g27
(I0
tp58
g29
tp59
Rp60
(I1
(I0
tp61
g5
I00
g33
tp62
bsS'rel_trans'
p63
g26
(g27
(I0
tp64
g29
tp65
Rp66
(I1
(I0
tp67
g5
I00
g33
tp68
bsS'rel_gravity_stats'
p69
(dp70
g14
I0
sg15
I0
sg16
I0
sg17
I0
sg18
I0
sg19
I0
sg20
I0
sss.